; Function Attrs: mustprogress nounwind uwtable
define dso_local void @_ZN4llvm11Instruction15adoptDbgRecordsEPNS_10BasicBlockENS_21ilist_iterator_w_bitsINS_12ilist_detail12node_optionsIS0_Lb0ELb0EvLb1ES1_EELb0ELb0EEEb(ptr noundef nonnull align 8 dereferenceable(72) %0, ptr noundef nonnull %1, ptr %2, i64 %3, i1 noundef zeroext %4) local_unnamed_addr #3 align 2 {
  %6 = tail call noundef ptr @_ZN4llvm10BasicBlock9getMarkerENS_21ilist_iterator_w_bitsINS_12ilist_detail12node_optionsINS_11InstructionELb0ELb0EvLb1ES0_EELb0ELb0EEE(ptr noundef nonnull align 8 dereferenceable(80) %1, ptr %2, i64 %3) #21
  %.not = icmp eq ptr %6, null
  br i1 %.not, label %11, label %7

7:                                                ; preds = %5
  %8 = getelementptr inbounds nuw i8, ptr %6, i64 8
  %9 = load ptr, ptr %8, align 8
  %10 = icmp eq ptr %8, %9
  br i1 %10, label %11, label %15

11:                                               ; preds = %7, %5
  %12 = getelementptr inbounds nuw i8, ptr %1, i64 48
  %13 = icmp eq ptr %12, %2
  br i1 %13, label %14, label %"_ZZN4llvm11Instruction15adoptDbgRecordsEPNS_10BasicBlockENS_21ilist_iterator_w_bitsINS_12ilist_detail12node_optionsIS0_Lb0ELb0EvLb1ES1_EELb0ELb0EEEbENK3$_0clEv.exit"

14:                                               ; preds = %11
  tail call void @_ZN4llvm9DbgMarker15eraseFromParentEv(ptr noundef nonnull align 8 dereferenceable(24) %6) #21
  tail call void @_ZN4llvm10BasicBlock24deleteTrailingDbgRecordsEv(ptr noundef nonnull align 8 dereferenceable(80) %1) #21
  br label %"_ZZN4llvm11Instruction15adoptDbgRecordsEPNS_10BasicBlockENS_21ilist_iterator_w_bitsINS_12ilist_detail12node_optionsIS0_Lb0ELb0EvLb1ES1_EELb0ELb0EEEbENK3$_0clEv.exit"

15:                                               ; preds = %7
  %16 = getelementptr inbounds nuw i8, ptr %0, i64 64
  %17 = load ptr, ptr %16, align 8
  %.not11 = icmp ne ptr %17, null
  %18 = getelementptr inbounds nuw i8, ptr %1, i64 48
  %19 = icmp eq ptr %2, %18
  %or.cond = select i1 %.not11, i1 true, i1 %19
  br i1 %or.cond, label %.critedge, label %25

.critedge:                                        ; preds = %15
  %20 = getelementptr inbounds i8, ptr %0, i64 40
  %21 = load ptr, ptr %20, align 8
  %22 = tail call noundef ptr @_ZN4llvm10BasicBlock12createMarkerEPNS_11InstructionE(ptr noundef nonnull align 8 dereferenceable(80) %21, ptr noundef nonnull %0) #21
  %23 = load ptr, ptr %16, align 8
  tail call void @_ZN4llvm9DbgMarker17absorbDebugValuesERS0_b(ptr noundef nonnull align 8 dereferenceable(24) %23, ptr noundef nonnull align 8 dereferenceable(24) %6, i1 noundef zeroext %4) #21
  br i1 %19, label %24, label %"_ZZN4llvm11Instruction15adoptDbgRecordsEPNS_10BasicBlockENS_21ilist_iterator_w_bitsINS_12ilist_detail12node_optionsIS0_Lb0ELb0EvLb1ES1_EELb0ELb0EEEbENK3$_0clEv.exit"

24:                                               ; preds = %.critedge
  tail call void @_ZN4llvm9DbgMarker15eraseFromParentEv(ptr noundef nonnull align 8 dereferenceable(24) %6) #21
  tail call void @_ZN4llvm10BasicBlock24deleteTrailingDbgRecordsEv(ptr noundef nonnull align 8 dereferenceable(80) %1) #21
  br label %"_ZZN4llvm11Instruction15adoptDbgRecordsEPNS_10BasicBlockENS_21ilist_iterator_w_bitsINS_12ilist_detail12node_optionsIS0_Lb0ELb0EvLb1ES1_EELb0ELb0EEEbENK3$_0clEv.exit"

25:                                               ; preds = %15
  store ptr %6, ptr %16, align 8
  store ptr %0, ptr %6, align 8
  %26 = icmp eq ptr %2, null
  %27 = getelementptr inbounds i8, ptr %2, i64 -24
  %28 = select i1 %26, ptr null, ptr %27
  %29 = getelementptr inbounds nuw i8, ptr %28, i64 64
  store ptr null, ptr %29, align 8
  br label %"_ZZN4llvm11Instruction15adoptDbgRecordsEPNS_10BasicBlockENS_21ilist_iterator_w_bitsINS_12ilist_detail12node_optionsIS0_Lb0ELb0EvLb1ES1_EELb0ELb0EEEbENK3$_0clEv.exit"

"_ZZN4llvm11Instruction15adoptDbgRecordsEPNS_10BasicBlockENS_21ilist_iterator_w_bitsINS_12ilist_detail12node_optionsIS0_Lb0ELb0EvLb1ES1_EELb0ELb0EEEbENK3$_0clEv.exit": ; preds = %24, %.critedge, %14, %11, %25
  ret void
}